Certificate:
    Data:
        Version: 3 (0x2)
        Serial Number:
            be:e3:ed:9c:43:56:fd:31
    Signature Algorithm: sha256WithRSAEncryption
        Issuer: C=IE, ST=parkwest, L=dublin, O=akhil, OU=IT, CN=jenkins-spacewalk
        Validity
            Not Before: Aug 25 19:28:03 2022 GMT
            Not After : Aug 28 19:28:03 2036 GMT
        Subject: C=IE, ST=parkwest, O=akhil, OU=IT, CN=jenkins-spacewalk/emailAddress=karadiakhil@gmail.com
        Subject Public Key Info:
            Public Key Algorithm: rsaEncryption
                Public-Key: (2048 bit)
                Modulus:
                    00:cc:d8:6f:43:74:00:ce:eb:b3:a1:d5:a8:a8:d2:
                    63:e5:bc:40:58:2b:6c:a7:3d:cf:d9:07:83:f1:6d:
                    01:bb:a1:df:aa:78:07:06:fb:15:bf:2e:73:4b:a3:
                    65:72:29:e4:ac:98:6d:e5:94:e1:e5:1e:17:b5:97:
                    91:be:eb:d5:19:47:a4:87:c2:10:44:23:c3:d9:60:
                    d0:cc:e4:3d:f2:cc:ac:65:ad:4d:dd:77:41:ae:4b:
                    41:d7:d3:84:ea:06:8a:68:a2:fc:7c:ef:ea:f2:5f:
                    87:a2:82:42:31:88:7c:10:38:19:6f:fa:db:71:16:
                    0d:9b:e9:69:85:b5:83:32:86:66:bc:3d:34:8c:b5:
                    d3:8b:c9:ce:16:12:e8:14:7c:96:5f:74:39:0e:c8:
                    bc:77:1f:af:6b:aa:86:ee:07:c2:31:04:be:12:46:
                    26:04:f0:11:12:52:08:df:96:9d:bb:e3:58:dd:6a:
                    cd:a5:a4:7f:f5:9b:62:8c:fa:91:69:f6:99:69:77:
                    86:e8:f5:ad:1d:d2:c0:76:38:b6:e6:c4:83:00:91:
                    5d:b2:f9:0a:72:a2:3d:e1:06:6d:9d:af:62:92:aa:
                    ed:7a:35:1f:fb:39:ee:57:d8:11:7f:84:36:8c:fd:
                    94:ed:9d:c6:b1:6e:98:83:61:39:35:74:56:fc:ea:
                    0c:57
                Exponent: 65537 (0x10001)
        X509v3 extensions:
            X509v3 Basic Constraints: 
                CA:FALSE
            X509v3 Key Usage: 
                Digital Signature, Key Encipherment
            X509v3 Extended Key Usage: 
                TLS Web Server Authentication, TLS Web Client Authentication
            Netscape Cert Type: 
                SSL Server
            Netscape Comment: 
                RHN SSL Tool Generated Certificate
            X509v3 Subject Key Identifier: 
                F3:24:89:C9:2D:CD:E4:6B:47:BF:C9:C2:6E:5E:56:E5:7F:3D:BB:A1
            X509v3 Authority Key Identifier: 
                keyid:4F:47:AF:8A:4F:49:D2:C5:9A:18:50:9F:11:AE:44:EE:82:20:1E:7D
                DirName:/C=IE/ST=parkwest/L=dublin/O=akhil/OU=IT/CN=jenkins-spacewalk
                serial:B4:60:E8:67:3A:42:7C:57

            X509v3 Subject Alternative Name: 
                DNS:jenkins-spacewalk, DNS:akhil.spacke[C[C[C.local, DNS:server
    Signature Algorithm: sha256WithRSAEncryption
         9d:63:02:b9:dd:cf:35:5c:82:80:1d:32:12:40:4f:80:56:62:
         c6:da:c8:49:79:bd:45:fd:5d:96:3b:8f:1c:a5:f3:bb:aa:26:
         41:24:a1:ae:6f:19:66:be:ed:c4:48:87:66:2b:2b:9d:14:70:
         83:a6:5b:2a:c9:cc:e8:7a:7c:ee:d8:f6:20:cc:b5:0b:7b:5b:
         cb:9b:aa:c6:4b:e9:13:97:a0:db:bd:ca:75:ee:67:7f:ec:f5:
         a1:61:3d:47:48:5f:35:d9:95:c0:fa:2f:f3:64:92:74:25:bf:
         ea:ee:be:c9:7a:6c:7f:df:25:1d:24:99:57:22:86:e2:ba:65:
         c6:59:a3:a7:3d:41:9d:4a:ce:71:ab:e6:f2:45:e3:5e:e6:b9:
         2e:c7:b5:51:93:4e:ff:03:1d:03:81:58:ca:f7:2c:47:c6:ad:
         a5:7c:1c:2e:75:fb:87:b7:0a:c0:c7:6f:f5:25:92:23:8e:c0:
         23:64:6a:65:3f:f5:13:d5:9d:46:ad:46:14:aa:11:14:54:64:
         9f:01:19:8f:27:15:08:c6:16:cb:98:3e:27:f9:ce:da:7d:9f:
         93:c4:fe:62:c2:c9:8f:da:08:e0:d4:95:9f:23:be:61:22:c2:
         a0:41:c6:01:e0:2c:a4:af:30:19:91:49:a4:5f:57:35:54:79:
         cf:3f:be:84
-----BEGIN CERTIFICATE-----
MIIE8zCCA9ugAwIBAgIJAL7j7ZxDVv0xMA0GCSqGSIb3DQEBCwUAMGoxCzAJBgNV
BAYTAklFMREwDwYDVQQIDAhwYXJrd2VzdDEPMA0GA1UEBwwGZHVibGluMQ4wDAYD
VQQKDAVha2hpbDELMAkGA1UECwwCSVQxGjAYBgNVBAMMEWplbmtpbnMtc3BhY2V3
YWxrMB4XDTIyMDgyNTE5MjgwM1oXDTM2MDgyODE5MjgwM1owfzELMAkGA1UEBhMC
SUUxETAPBgNVBAgMCHBhcmt3ZXN0MQ4wDAYDVQQKDAVha2hpbDELMAkGA1UECwwC
SVQxGjAYBgNVBAMMEWplbmtpbnMtc3BhY2V3YWxrMSQwIgYJKoZIhvcNAQkBFhVr
YXJhZGlha2hpbEBnbWFpbC5jb20wggEiMA0GCSqGSIb3DQEBAQUAA4IBDwAwggEK
AoIBAQDM2G9DdADO67Oh1aio0mPlvEBYK2ynPc/ZB4PxbQG7od+qeAcG+xW/LnNL
o2VyKeSsmG3llOHlHhe1l5G+69UZR6SHwhBEI8PZYNDM5D3yzKxlrU3dd0GuS0HX
04TqBopoovx87+ryX4eigkIxiHwQOBlv+ttxFg2b6WmFtYMyhma8PTSMtdOLyc4W
EugUfJZfdDkOyLx3H69rqobuB8IxBL4SRiYE8BESUgjflp2741jdas2lpH/1m2KM
+pFp9plpd4bo9a0d0sB2OLbmxIMAkV2y+Qpyoj3hBm2dr2KSqu16NR/7Oe5X2BF/
hDaM/ZTtncaxbpiDYTk1dFb86gxXAgMBAAGjggGFMIIBgTAJBgNVHRMEAjAAMAsG
A1UdDwQEAwIFoDAdBgNVHSUEFjAUBggrBgEFBQcDAQYIKwYBBQUHAwIwEQYJYIZI
AYb4QgEBBAQDAgZAMDEGCWCGSAGG+EIBDQQkFiJSSE4gU1NMIFRvb2wgR2VuZXJh
dGVkIENlcnRpZmljYXRlMB0GA1UdDgQWBBTzJInJLc3ka0e/ycJuXlblfz27oTCB
nAYDVR0jBIGUMIGRgBRPR6+KT0nSxZoYUJ8RrkTugiAefaFupGwwajELMAkGA1UE
BhMCSUUxETAPBgNVBAgMCHBhcmt3ZXN0MQ8wDQYDVQQHDAZkdWJsaW4xDjAMBgNV
BAoMBWFraGlsMQswCQYDVQQLDAJJVDEaMBgGA1UEAwwRamVua2lucy1zcGFjZXdh
bGuCCQC0YOhnOkJ8VzBEBgNVHREEPTA7ghFqZW5raW5zLXNwYWNld2Fsa4IeYWto
aWwuc3BhY2tlCAgbW0MbW0MIG1tDLmxvY2FsggZzZXJ2ZXIwDQYJKoZIhvcNAQEL
BQADggEBAJ1jArndzzVcgoAdMhJAT4BWYsbayEl5vUX9XZY7jxyl87uqJkEkoa5v
GWa+7cRIh2YrK50UcIOmWyrJzOh6fO7Y9iDMtQt7W8ubqsZL6ROXoNu9ynXuZ3/s
9aFhPUdIXzXZlcD6L/NkknQlv+ruvsl6bH/fJR0kmVcihuK6ZcZZo6c9QZ1KznGr
5vJF417muS7HtVGTTv8DHQOBWMr3LEfGraV8HC51+4e3CsDHb/UlkiOOwCNkamU/
9RPVnUatRhSqERRUZJ8BGY8nFQjGFsuYPif5ztp9n5PE/mLCyY/aCODUlZ8jvmEi
wqBBxgHgLKSvMBmRSaRfVzVUec8/voQ=
-----END CERTIFICATE-----
