Certificate Request:
    Data:
        Version: 0 (0x0)
        Subject: C=IE, ST=parkwest, L=dublin, O=akhil, OU=IT, CN=jenkins-spacewalk/emailAddress=karadiakhil@gmail.com
        Subject Public Key Info:
            Public Key Algorithm: rsaEncryption
                Public-Key: (2048 bit)
                Modulus:
                    00:cc:d8:6f:43:74:00:ce:eb:b3:a1:d5:a8:a8:d2:
                    63:e5:bc:40:58:2b:6c:a7:3d:cf:d9:07:83:f1:6d:
                    01:bb:a1:df:aa:78:07:06:fb:15:bf:2e:73:4b:a3:
                    65:72:29:e4:ac:98:6d:e5:94:e1:e5:1e:17:b5:97:
                    91:be:eb:d5:19:47:a4:87:c2:10:44:23:c3:d9:60:
                    d0:cc:e4:3d:f2:cc:ac:65:ad:4d:dd:77:41:ae:4b:
                    41:d7:d3:84:ea:06:8a:68:a2:fc:7c:ef:ea:f2:5f:
                    87:a2:82:42:31:88:7c:10:38:19:6f:fa:db:71:16:
                    0d:9b:e9:69:85:b5:83:32:86:66:bc:3d:34:8c:b5:
                    d3:8b:c9:ce:16:12:e8:14:7c:96:5f:74:39:0e:c8:
                    bc:77:1f:af:6b:aa:86:ee:07:c2:31:04:be:12:46:
                    26:04:f0:11:12:52:08:df:96:9d:bb:e3:58:dd:6a:
                    cd:a5:a4:7f:f5:9b:62:8c:fa:91:69:f6:99:69:77:
                    86:e8:f5:ad:1d:d2:c0:76:38:b6:e6:c4:83:00:91:
                    5d:b2:f9:0a:72:a2:3d:e1:06:6d:9d:af:62:92:aa:
                    ed:7a:35:1f:fb:39:ee:57:d8:11:7f:84:36:8c:fd:
                    94:ed:9d:c6:b1:6e:98:83:61:39:35:74:56:fc:ea:
                    0c:57
                Exponent: 65537 (0x10001)
        Attributes:
        Requested Extensions:
            X509v3 Basic Constraints: 
                CA:FALSE
            X509v3 Key Usage: 
                Digital Signature, Non Repudiation, Key Encipherment
            X509v3 Subject Alternative Name: 
                DNS:jenkins-spacewalk, DNS:akhil.spacke[C[C[C.local, DNS:server
    Signature Algorithm: sha256WithRSAEncryption
         a4:23:b2:9a:e1:3c:25:b1:02:50:db:99:f8:b3:3a:df:07:9f:
         aa:db:c1:d0:41:e3:aa:47:90:85:3d:a0:fa:08:3c:13:0e:fa:
         66:65:a3:cb:21:ff:fd:3b:d9:60:e5:63:2f:dd:ec:8e:75:fd:
         a9:bf:4d:cf:d4:1c:8b:1c:1e:96:15:46:d0:ca:18:b8:9a:6e:
         a6:3a:bf:0d:e8:30:5d:3e:08:f1:97:ac:f1:04:c4:ba:d8:14:
         b2:9e:c0:9e:f6:b0:a2:59:b1:c1:00:d8:44:bd:a7:ee:f3:32:
         44:4c:f4:f0:e0:44:1e:57:95:75:74:b3:d2:c0:e1:18:47:8a:
         ba:d3:c8:65:30:db:66:a2:3e:c1:f2:11:3a:b4:9d:b8:ef:43:
         10:3b:f8:04:8d:15:93:78:b0:1a:3d:e7:d3:b2:4e:98:2c:4b:
         8c:53:2f:7b:70:64:52:6b:7e:1c:6b:b5:14:3f:6a:cc:15:62:
         7b:62:09:cb:09:4c:97:b1:31:fe:72:ff:45:b3:10:da:c0:86:
         5b:82:64:39:c8:6e:3c:27:5d:fd:6c:71:8a:3a:05:47:e6:98:
         63:da:40:5f:0f:0f:b1:54:17:e1:07:e6:8f:0c:72:b4:cc:04:
         4e:02:5d:f8:0e:2c:fc:03:42:65:a0:2b:4f:be:ce:34:47:1f:
         71:24:3c:85
-----BEGIN CERTIFICATE REQUEST-----
MIIDRTCCAi0CAQAwgZAxCzAJBgNVBAYTAklFMREwDwYDVQQIDAhwYXJrd2VzdDEP
MA0GA1UEBwwGZHVibGluMQ4wDAYDVQQKDAVha2hpbDELMAkGA1UECwwCSVQxGjAY
BgNVBAMMEWplbmtpbnMtc3BhY2V3YWxrMSQwIgYJKoZIhvcNAQkBFhVrYXJhZGlh
a2hpbEBnbWFpbC5jb20wggEiMA0GCSqGSIb3DQEBAQUAA4IBDwAwggEKAoIBAQDM
2G9DdADO67Oh1aio0mPlvEBYK2ynPc/ZB4PxbQG7od+qeAcG+xW/LnNLo2VyKeSs
mG3llOHlHhe1l5G+69UZR6SHwhBEI8PZYNDM5D3yzKxlrU3dd0GuS0HX04TqBopo
ovx87+ryX4eigkIxiHwQOBlv+ttxFg2b6WmFtYMyhma8PTSMtdOLyc4WEugUfJZf
dDkOyLx3H69rqobuB8IxBL4SRiYE8BESUgjflp2741jdas2lpH/1m2KM+pFp9plp
d4bo9a0d0sB2OLbmxIMAkV2y+Qpyoj3hBm2dr2KSqu16NR/7Oe5X2BF/hDaM/ZTt
ncaxbpiDYTk1dFb86gxXAgMBAAGgbzBtBgkqhkiG9w0BCQ4xYDBeMAkGA1UdEwQC
MAAwCwYDVR0PBAQDAgXgMEQGA1UdEQQ9MDuCEWplbmtpbnMtc3BhY2V3YWxrgh5h
a2hpbC5zcGFja2UICBtbQxtbQwgbW0MubG9jYWyCBnNlcnZlcjANBgkqhkiG9w0B
AQsFAAOCAQEApCOymuE8JbECUNuZ+LM63wefqtvB0EHjqkeQhT2g+gg8Ew76ZmWj
yyH//TvZYOVjL93sjnX9qb9Nz9QcixwelhVG0MoYuJpupjq/DegwXT4I8Zes8QTE
utgUsp7AnvawolmxwQDYRL2n7vMyREz08OBEHleVdXSz0sDhGEeKutPIZTDbZqI+
wfIROrSduO9DEDv4BI0Vk3iwGj3n07JOmCxLjFMve3BkUmt+HGu1FD9qzBVie2IJ
ywlMl7Ex/nL/RbMQ2sCGW4JkOchuPCdd/WxxijoFR+aYY9pAXw8PsVQX4Qfmjwxy
tMwETgJd+A4s/ANCZaArT77ONEcfcSQ8hQ==
-----END CERTIFICATE REQUEST-----
